target datalayout = "e-m:e-p270:32:32-p271:32:32-p272:64:64-i64:64-i128:128-f80:128-n8:16:32:64-S128"
target triple = "x86_64-pc-linux-gnu"

%"struct.arrow::util::(anonymous namespace)::AfterForkState" = type { ptr }

@_ZN5arrow4util12_GLOBAL__N_114AfterForkState8instanceE = internal global %"struct.arrow::util::(anonymous namespace)::AfterForkState" zeroinitializer, align 8
@_ZN5arrow4util5MutexC1Ev = unnamed_addr alias void (ptr), ptr @_ZN5arrow4util5MutexC2Ev

; Function Attrs: mustprogress uwtable
define internal void @_ZN5arrow4util12_GLOBAL__N_114AfterForkState9AfterForkEv() #3 align 2 personality ptr @__gxx_personality_v0 {
  %1 = alloca ptr, align 8
  %2 = alloca i32, align 4
  %3 = call noalias noundef nonnull ptr @_Znwm(i64 noundef 16) #15
  invoke void @_ZN5arrow4util5MutexC1Ev(ptr noundef nonnull align 8 dereferenceable(16) %3)
          to label %4 unwind label %5

4:                                                ; preds = %0
  store ptr %3, ptr @_ZN5arrow4util12_GLOBAL__N_114AfterForkState8instanceE, align 8, !tbaa !30
  ret void

5:                                                ; preds = %0
  %6 = landingpad { ptr, i32 }
          cleanup
  %7 = extractvalue { ptr, i32 } %6, 0
  store ptr %7, ptr %1, align 8
  %8 = extractvalue { ptr, i32 } %6, 1
  store i32 %8, ptr %2, align 4
  call void @_ZdlPvm(ptr noundef %3, i64 noundef 16) #16
  br label %9

9:                                                ; preds = %5
  %10 = load ptr, ptr %1, align 8
  %11 = load i32, ptr %2, align 4
  %12 = insertvalue { ptr, i32 } poison, ptr %10, 0
  %13 = insertvalue { ptr, i32 } %12, i32 %11, 1
  resume { ptr, i32 } %13
}