; Function Attrs: mustprogress uwtable
define internal void @_ZN5arrow4util12_GLOBAL__N_114AfterForkState9AfterForkEv() #1 align 2 personality ptr @__gxx_personality_v0 {
  %1 = tail call noalias noundef nonnull dereferenceable(16) ptr @_Znwm(i64 noundef 16) #13
  invoke void @_ZN5arrow4util5MutexC1Ev(ptr noundef nonnull align 8 dereferenceable(16) %1)
          to label %2 unwind label %3

2:                                                ; preds = %0
  store ptr %1, ptr @_ZN5arrow4util12_GLOBAL__N_114AfterForkState8instanceE.0, align 8, !tbaa !17
  ret void

3:                                                ; preds = %0
  %4 = landingpad { ptr, i32 }
          cleanup
  tail call void @_ZdlPvm(ptr noundef nonnull %1, i64 noundef 16) #14
  resume { ptr, i32 } %4
}